target datalayout = "e-m:e-p270:32:32-p271:32:32-p272:64:64-i64:64-i128:128-f80:128-n8:16:32:64-S128"
target triple = "x86_64-pc-linux-gnu"

%"class.pxrInternal_v0_24__pxrReserved__::TfRefPtr" = type { ptr }

; Function Attrs: mustprogress norecurse uwtable
define dso_local noundef i32 @main() #8 personality ptr @__gxx_personality_v0 {
  %1 = alloca %"class.pxrInternal_v0_24__pxrReserved__::TfRefPtr", align 8
  %2 = alloca ptr, align 8
  %3 = alloca i32, align 4
  call void @_Z14CreateTestDatad(ptr dead_on_unwind writable sret(%"class.pxrInternal_v0_24__pxrReserved__::TfRefPtr") align 8 %1, double noundef 0.000000e+00)
  invoke void @_Z14XformCacheTestRKN32pxrInternal_v0_24__pxrReserved__8TfRefPtrINS_8UsdStageEEE(ptr noundef nonnull align 8 dereferenceable(8) %1)
          to label %4 unwind label %5

4:                                                ; preds = %0
  call void @_ZN32pxrInternal_v0_24__pxrReserved__8TfRefPtrINS_8UsdStageEED2Ev(ptr noundef nonnull align 8 dereferenceable(8) %1) #3
  ret i32 0

5:                                                ; preds = %0
  %6 = landingpad { ptr, i32 }
          cleanup
  %7 = extractvalue { ptr, i32 } %6, 0
  store ptr %7, ptr %2, align 8
  %8 = extractvalue { ptr, i32 } %6, 1
  store i32 %8, ptr %3, align 4
  call void @_ZN32pxrInternal_v0_24__pxrReserved__8TfRefPtrINS_8UsdStageEED2Ev(ptr noundef nonnull align 8 dereferenceable(8) %1) #3
  br label %9

9:                                                ; preds = %5
  %10 = load ptr, ptr %2, align 8
  %11 = load i32, ptr %3, align 4
  %12 = insertvalue { ptr, i32 } poison, ptr %10, 0
  %13 = insertvalue { ptr, i32 } %12, i32 %11, 1
  resume { ptr, i32 } %13
}