; Function Attrs: mustprogress norecurse uwtable
define dso_local noundef i32 @main() local_unnamed_addr #7 personality ptr @__gxx_personality_v0 {
  %1 = alloca %"class.pxrInternal_v0_24__pxrReserved__::TfRefPtr", align 8
  call void @_Z14CreateTestDatad(ptr dead_on_unwind nonnull writable sret(%"class.pxrInternal_v0_24__pxrReserved__::TfRefPtr") align 8 %1, double noundef 0.000000e+00)
  invoke void @_Z14XformCacheTestRKN32pxrInternal_v0_24__pxrReserved__8TfRefPtrINS_8UsdStageEEE(ptr noundef nonnull align 8 dereferenceable(8) %1)
          to label %2 unwind label %27

2:                                                ; preds = %0
  %3 = load ptr, ptr %1, align 8
  %.not.i.i.i = icmp eq ptr %3, null
  br i1 %.not.i.i.i, label %_ZN32pxrInternal_v0_24__pxrReserved__8TfRefPtrINS_8UsdStageEED2Ev.exit, label %4

4:                                                ; preds = %2
  %5 = getelementptr inbounds nuw i8, ptr %3, i64 8
  %6 = load atomic i32, ptr %5 monotonic, align 4
  %7 = icmp slt i32 %6, 0
  br i1 %7, label %8, label %_ZN32pxrInternal_v0_24__pxrReserved__30Tf_RefPtr_UniqueChangedCounter9RemoveRefEPKNS_9TfRefBaseE.exit.i.i

8:                                                ; preds = %4
  %.not68.i.i.i = icmp eq i32 %6, -2
  br i1 %.not68.i.i.i, label %16, label %9

9:                                                ; preds = %8
  %10 = add nsw i32 %6, 1
  %11 = cmpxchg weak ptr %5, i32 %6, i32 %10 release monotonic, align 4
  %12 = extractvalue { i32, i1 } %11, 1
  %13 = extractvalue { i32, i1 } %11, 0
  br i1 %12, label %14, label %16

14:                                               ; preds = %9
  %15 = icmp eq i32 %6, -1
  br i1 %15, label %20, label %_ZN32pxrInternal_v0_24__pxrReserved__8TfRefPtrINS_8UsdStageEED2Ev.exit

16:                                               ; preds = %9, %8
  %.067.i.i.i = phi i32 [ %13, %9 ], [ -2, %8 ]
  %17 = invoke noundef zeroext i1 @_ZN32pxrInternal_v0_24__pxrReserved__30Tf_RefPtr_UniqueChangedCounter21_RemoveRefMaybeLockedEPKNS_9TfRefBaseEi(ptr noundef nonnull %3, i32 noundef %.067.i.i.i)
          to label %.noexc.i unwind label %24

.noexc.i:                                         ; preds = %16
  br i1 %17, label %20, label %_ZN32pxrInternal_v0_24__pxrReserved__8TfRefPtrINS_8UsdStageEED2Ev.exit

_ZN32pxrInternal_v0_24__pxrReserved__30Tf_RefPtr_UniqueChangedCounter9RemoveRefEPKNS_9TfRefBaseE.exit.i.i: ; preds = %4
  %18 = atomicrmw sub ptr %5, i32 1 release, align 4
  %19 = icmp eq i32 %18, 1
  br i1 %19, label %20, label %_ZN32pxrInternal_v0_24__pxrReserved__8TfRefPtrINS_8UsdStageEED2Ev.exit

20:                                               ; preds = %_ZN32pxrInternal_v0_24__pxrReserved__30Tf_RefPtr_UniqueChangedCounter9RemoveRefEPKNS_9TfRefBaseE.exit.i.i, %.noexc.i, %14
  %21 = load ptr, ptr %3, align 8
  %22 = getelementptr inbounds nuw i8, ptr %21, i64 8
  %23 = load ptr, ptr %22, align 8
  call void %23(ptr noundef nonnull align 8 dereferenceable(12) %3) #19
  br label %_ZN32pxrInternal_v0_24__pxrReserved__8TfRefPtrINS_8UsdStageEED2Ev.exit

24:                                               ; preds = %16
  %25 = landingpad { ptr, i32 }
          catch ptr null
  %26 = extractvalue { ptr, i32 } %25, 0
  call void @__clang_call_terminate(ptr %26) #17
  unreachable

_ZN32pxrInternal_v0_24__pxrReserved__8TfRefPtrINS_8UsdStageEED2Ev.exit: ; preds = %2, %14, %.noexc.i, %_ZN32pxrInternal_v0_24__pxrReserved__30Tf_RefPtr_UniqueChangedCounter9RemoveRefEPKNS_9TfRefBaseE.exit.i.i, %20
  ret i32 0

27:                                               ; preds = %0
  %28 = landingpad { ptr, i32 }
          cleanup
  call void @_ZN32pxrInternal_v0_24__pxrReserved__8TfRefPtrINS_8UsdStageEED2Ev(ptr noundef nonnull align 8 dereferenceable(8) %1) #19
  resume { ptr, i32 } %28
}